target datalayout = "e-m:e-p270:32:32-p271:32:32-p272:64:64-i64:64-i128:128-f80:128-n8:16:32:64-S128"
target triple = "x86_64-pc-linux-gnu"

; Function Attrs: inlinehint nounwind uwtable
define internal i64 @mi_bitmap_mask_(i64 noundef %0, i64 noundef %1) #0 {
  %3 = alloca i64, align 8
  %4 = alloca i64, align 8
  %5 = alloca i64, align 8
  store i64 %0, ptr %4, align 8, !tbaa !7
  store i64 %1, ptr %5, align 8, !tbaa !7
  %6 = load i64, ptr %4, align 8, !tbaa !7
  %7 = icmp uge i64 %6, 64
  br i1 %7, label %8, label %9

8:                                                ; preds = %2
  store i64 -1, ptr %3, align 8
  br label %19

9:                                                ; preds = %2
  %10 = load i64, ptr %4, align 8, !tbaa !7
  %11 = icmp eq i64 %10, 0
  br i1 %11, label %12, label %13

12:                                               ; preds = %9
  store i64 0, ptr %3, align 8
  br label %19

13:                                               ; preds = %9
  %14 = load i64, ptr %4, align 8, !tbaa !7
  %15 = shl i64 1, %14
  %16 = sub i64 %15, 1
  %17 = load i64, ptr %5, align 8, !tbaa !7
  %18 = shl i64 %16, %17
  store i64 %18, ptr %3, align 8
  br label %19

19:                                               ; preds = %13, %12, %8
  %20 = load i64, ptr %3, align 8
  ret i64 %20
}

; Function Attrs: inlinehint nounwind uwtable
define internal i64 @mi_bitmap_index_bit_in_field(i64 noundef %0) #0 {
  %2 = alloca i64, align 8
  store i64 %0, ptr %2, align 8, !tbaa !7
  %3 = load i64, ptr %2, align 8, !tbaa !7
  %4 = urem i64 %3, 64
  ret i64 %4
}

; Function Attrs: nounwind uwtable
define internal i64 @mi_bitmap_mask_across(i64 noundef %0, i64 noundef %1, i64 noundef %2, ptr noundef %3, ptr noundef %4, ptr noundef %5) #2 {
  %7 = alloca i64, align 8
  %8 = alloca i64, align 8
  %9 = alloca i64, align 8
  %10 = alloca i64, align 8
  %11 = alloca ptr, align 8
  %12 = alloca ptr, align 8
  %13 = alloca ptr, align 8
  %14 = alloca i64, align 8
  %15 = alloca i32, align 4
  %16 = alloca i64, align 8
  %17 = alloca i64, align 8
  store i64 %0, ptr %8, align 8, !tbaa !7
  store i64 %1, ptr %9, align 8, !tbaa !7
  store i64 %2, ptr %10, align 8, !tbaa !7
  store ptr %3, ptr %11, align 8, !tbaa !9
  store ptr %4, ptr %12, align 8, !tbaa !9
  store ptr %5, ptr %13, align 8, !tbaa !9
  call void @llvm.lifetime.start.p0(i64 8, ptr %14) #5
  %18 = load i64, ptr %8, align 8, !tbaa !7
  %19 = call i64 @mi_bitmap_index_bit_in_field(i64 noundef %18) #6
  store i64 %19, ptr %14, align 8, !tbaa !7
  %20 = load i64, ptr %14, align 8, !tbaa !7
  %21 = load i64, ptr %10, align 8, !tbaa !7
  %22 = add i64 %20, %21
  %23 = icmp ule i64 %22, 64
  %24 = xor i1 %23, true
  %25 = xor i1 %24, true
  %26 = zext i1 %25 to i32
  %27 = sext i32 %26 to i64
  %28 = call i64 @llvm.expect.i64(i64 %27, i64 1)
  %29 = icmp ne i64 %28, 0
  br i1 %29, label %30, label %37

30:                                               ; preds = %6
  %31 = load i64, ptr %10, align 8, !tbaa !7
  %32 = load i64, ptr %14, align 8, !tbaa !7
  %33 = call i64 @mi_bitmap_mask_(i64 noundef %31, i64 noundef %32) #6
  %34 = load ptr, ptr %11, align 8, !tbaa !9
  store i64 %33, ptr %34, align 8, !tbaa !7
  %35 = load ptr, ptr %12, align 8, !tbaa !9
  store i64 0, ptr %35, align 8, !tbaa !7
  %36 = load ptr, ptr %13, align 8, !tbaa !9
  store i64 0, ptr %36, align 8, !tbaa !7
  store i64 0, ptr %7, align 8
  store i32 1, ptr %15, align 4
  br label %62

37:                                               ; preds = %6
  call void @llvm.lifetime.start.p0(i64 8, ptr %16) #5
  %38 = load i64, ptr %14, align 8, !tbaa !7
  %39 = sub i64 64, %38
  store i64 %39, ptr %16, align 8, !tbaa !7
  %40 = load i64, ptr %16, align 8, !tbaa !7
  %41 = load i64, ptr %14, align 8, !tbaa !7
  %42 = call i64 @mi_bitmap_mask_(i64 noundef %40, i64 noundef %41) #6
  %43 = load ptr, ptr %11, align 8, !tbaa !9
  store i64 %42, ptr %43, align 8, !tbaa !7
  %44 = load i64, ptr %16, align 8, !tbaa !7
  %45 = load i64, ptr %10, align 8, !tbaa !7
  %46 = sub i64 %45, %44
  store i64 %46, ptr %10, align 8, !tbaa !7
  call void @llvm.lifetime.start.p0(i64 8, ptr %17) #5
  %47 = load i64, ptr %10, align 8, !tbaa !7
  %48 = udiv i64 %47, 64
  store i64 %48, ptr %17, align 8, !tbaa !7
  %49 = load ptr, ptr %12, align 8, !tbaa !9
  store i64 -1, ptr %49, align 8, !tbaa !7
  %50 = load i64, ptr %10, align 8, !tbaa !7
  %51 = urem i64 %50, 64
  store i64 %51, ptr %10, align 8, !tbaa !7
  %52 = load i64, ptr %10, align 8, !tbaa !7
  %53 = icmp eq i64 %52, 0
  br i1 %53, label %54, label %55

54:                                               ; preds = %37
  br label %58

55:                                               ; preds = %37
  %56 = load i64, ptr %10, align 8, !tbaa !7
  %57 = call i64 @mi_bitmap_mask_(i64 noundef %56, i64 noundef 0) #6
  br label %58

58:                                               ; preds = %55, %54
  %59 = phi i64 [ 0, %54 ], [ %57, %55 ]
  %60 = load ptr, ptr %13, align 8, !tbaa !9
  store i64 %59, ptr %60, align 8, !tbaa !7
  %61 = load i64, ptr %17, align 8, !tbaa !7
  store i64 %61, ptr %7, align 8
  store i32 1, ptr %15, align 4
  call void @llvm.lifetime.end.p0(i64 8, ptr %17) #5
  call void @llvm.lifetime.end.p0(i64 8, ptr %16) #5
  br label %62

62:                                               ; preds = %58, %30
  call void @llvm.lifetime.end.p0(i64 8, ptr %14) #5
  %63 = load i64, ptr %7, align 8
  ret i64 %63
}

; Function Attrs: inlinehint nounwind uwtable
define internal i64 @mi_bitmap_index_field(i64 noundef %0) #0 {
  %2 = alloca i64, align 8
  store i64 %0, ptr %2, align 8, !tbaa !7
  %3 = load i64, ptr %2, align 8, !tbaa !7
  %4 = udiv i64 %3, 64
  ret i64 %4
}

; Function Attrs: nounwind uwtable
define internal zeroext i1 @mi_bitmap_is_claimedx_across(ptr noundef %0, i64 noundef %1, i64 noundef %2, i64 noundef %3, ptr noundef %4) #2 {
  %6 = alloca ptr, align 8
  %7 = alloca i64, align 8
  %8 = alloca i64, align 8
  %9 = alloca i64, align 8
  %10 = alloca ptr, align 8
  %11 = alloca i64, align 8
  %12 = alloca i64, align 8
  %13 = alloca i64, align 8
  %14 = alloca i64, align 8
  %15 = alloca i64, align 8
  %16 = alloca i8, align 1
  %17 = alloca i8, align 1
  %18 = alloca ptr, align 8
  %19 = alloca i64, align 8
  %20 = alloca i64, align 8
  %21 = alloca i64, align 8
  %22 = alloca i64, align 8
  store ptr %0, ptr %6, align 8, !tbaa !3
  store i64 %1, ptr %7, align 8, !tbaa !7
  store i64 %2, ptr %8, align 8, !tbaa !7
  store i64 %3, ptr %9, align 8, !tbaa !7
  store ptr %4, ptr %10, align 8, !tbaa !19
  call void @llvm.lifetime.start.p0(i64 8, ptr %11) #5
  %23 = load i64, ptr %9, align 8, !tbaa !7
  %24 = call i64 @mi_bitmap_index_field(i64 noundef %23) #6
  store i64 %24, ptr %11, align 8, !tbaa !7
  call void @llvm.lifetime.start.p0(i64 8, ptr %12) #5
  call void @llvm.lifetime.start.p0(i64 8, ptr %13) #5
  call void @llvm.lifetime.start.p0(i64 8, ptr %14) #5
  call void @llvm.lifetime.start.p0(i64 8, ptr %15) #5
  %25 = load i64, ptr %9, align 8, !tbaa !7
  %26 = load i64, ptr %7, align 8, !tbaa !7
  %27 = load i64, ptr %8, align 8, !tbaa !7
  %28 = call i64 @mi_bitmap_mask_across(i64 noundef %25, i64 noundef %26, i64 noundef %27, ptr noundef %12, ptr noundef %13, ptr noundef %14) #6
  store i64 %28, ptr %15, align 8, !tbaa !7
  call void @llvm.lifetime.start.p0(i64 1, ptr %16) #5
  store i8 1, ptr %16, align 1, !tbaa !11
  call void @llvm.lifetime.start.p0(i64 1, ptr %17) #5
  store i8 0, ptr %17, align 1, !tbaa !11
  call void @llvm.lifetime.start.p0(i64 8, ptr %18) #5
  %29 = load ptr, ptr %6, align 8, !tbaa !3
  %30 = load i64, ptr %11, align 8, !tbaa !7
  %31 = getelementptr inbounds nuw i64, ptr %29, i64 %30
  store ptr %31, ptr %18, align 8, !tbaa !3
  call void @llvm.lifetime.start.p0(i64 8, ptr %19) #5
  %32 = load ptr, ptr %18, align 8, !tbaa !3
  %33 = getelementptr inbounds nuw i64, ptr %32, i32 1
  store ptr %33, ptr %18, align 8, !tbaa !3
  %34 = load atomic i64, ptr %32 monotonic, align 8
  store i64 %34, ptr %20, align 8
  %35 = load i64, ptr %20, align 8, !tbaa !7
  store i64 %35, ptr %19, align 8, !tbaa !7
  %36 = load i64, ptr %19, align 8, !tbaa !7
  %37 = load i64, ptr %12, align 8, !tbaa !7
  %38 = and i64 %36, %37
  %39 = load i64, ptr %12, align 8, !tbaa !7
  %40 = icmp ne i64 %38, %39
  br i1 %40, label %41, label %42

41:                                               ; preds = %5
  store i8 0, ptr %16, align 1, !tbaa !11
  br label %42

42:                                               ; preds = %41, %5
  %43 = load i64, ptr %19, align 8, !tbaa !7
  %44 = load i64, ptr %12, align 8, !tbaa !7
  %45 = and i64 %43, %44
  %46 = icmp ne i64 %45, 0
  br i1 %46, label %47, label %48

47:                                               ; preds = %42
  store i8 1, ptr %17, align 1, !tbaa !11
  br label %48

48:                                               ; preds = %47, %42
  br label %49

49:                                               ; preds = %70, %48
  %50 = load i64, ptr %15, align 8, !tbaa !7
  %51 = add i64 %50, -1
  store i64 %51, ptr %15, align 8, !tbaa !7
  %52 = icmp ugt i64 %50, 0
  br i1 %52, label %53, label %71

53:                                               ; preds = %49
  %54 = load ptr, ptr %18, align 8, !tbaa !3
  %55 = getelementptr inbounds nuw i64, ptr %54, i32 1
  store ptr %55, ptr %18, align 8, !tbaa !3
  %56 = load atomic i64, ptr %54 monotonic, align 8
  store i64 %56, ptr %21, align 8
  %57 = load i64, ptr %21, align 8, !tbaa !7
  store i64 %57, ptr %19, align 8, !tbaa !7
  %58 = load i64, ptr %19, align 8, !tbaa !7
  %59 = load i64, ptr %13, align 8, !tbaa !7
  %60 = and i64 %58, %59
  %61 = load i64, ptr %13, align 8, !tbaa !7
  %62 = icmp ne i64 %60, %61
  br i1 %62, label %63, label %64

63:                                               ; preds = %53
  store i8 0, ptr %16, align 1, !tbaa !11
  br label %64

64:                                               ; preds = %63, %53
  %65 = load i64, ptr %19, align 8, !tbaa !7
  %66 = load i64, ptr %13, align 8, !tbaa !7
  %67 = and i64 %65, %66
  %68 = icmp ne i64 %67, 0
  br i1 %68, label %69, label %70

69:                                               ; preds = %64
  store i8 1, ptr %17, align 1, !tbaa !11
  br label %70

70:                                               ; preds = %69, %64
  br label %49, !llvm.loop !31

71:                                               ; preds = %49
  %72 = load i64, ptr %14, align 8, !tbaa !7
  %73 = icmp ne i64 %72, 0
  br i1 %73, label %74, label %91

74:                                               ; preds = %71
  %75 = load ptr, ptr %18, align 8, !tbaa !3
  %76 = load atomic i64, ptr %75 monotonic, align 8
  store i64 %76, ptr %22, align 8
  %77 = load i64, ptr %22, align 8, !tbaa !7
  store i64 %77, ptr %19, align 8, !tbaa !7
  %78 = load i64, ptr %19, align 8, !tbaa !7
  %79 = load i64, ptr %14, align 8, !tbaa !7
  %80 = and i64 %78, %79
  %81 = load i64, ptr %14, align 8, !tbaa !7
  %82 = icmp ne i64 %80, %81
  br i1 %82, label %83, label %84

83:                                               ; preds = %74
  store i8 0, ptr %16, align 1, !tbaa !11
  br label %84

84:                                               ; preds = %83, %74
  %85 = load i64, ptr %19, align 8, !tbaa !7
  %86 = load i64, ptr %14, align 8, !tbaa !7
  %87 = and i64 %85, %86
  %88 = icmp ne i64 %87, 0
  br i1 %88, label %89, label %90

89:                                               ; preds = %84
  store i8 1, ptr %17, align 1, !tbaa !11
  br label %90

90:                                               ; preds = %89, %84
  br label %91

91:                                               ; preds = %90, %71
  %92 = load ptr, ptr %10, align 8, !tbaa !19
  %93 = icmp ne ptr %92, null
  br i1 %93, label %94, label %99

94:                                               ; preds = %91
  %95 = load i8, ptr %17, align 1, !tbaa !11, !range !13, !noundef !14
  %96 = trunc i8 %95 to i1
  %97 = load ptr, ptr %10, align 8, !tbaa !19
  %98 = zext i1 %96 to i8
  store i8 %98, ptr %97, align 1, !tbaa !11
  br label %99

99:                                               ; preds = %94, %91
  %100 = load i8, ptr %16, align 1, !tbaa !11, !range !13, !noundef !14
  %101 = trunc i8 %100 to i1
  call void @llvm.lifetime.end.p0(i64 8, ptr %19) #5
  call void @llvm.lifetime.end.p0(i64 8, ptr %18) #5
  call void @llvm.lifetime.end.p0(i64 1, ptr %17) #5
  call void @llvm.lifetime.end.p0(i64 1, ptr %16) #5
  call void @llvm.lifetime.end.p0(i64 8, ptr %15) #5
  call void @llvm.lifetime.end.p0(i64 8, ptr %14) #5
  call void @llvm.lifetime.end.p0(i64 8, ptr %13) #5
  call void @llvm.lifetime.end.p0(i64 8, ptr %12) #5
  call void @llvm.lifetime.end.p0(i64 8, ptr %11) #5
  ret i1 %101
}

; Function Attrs: nounwind uwtable
define hidden zeroext i1 @_mi_bitmap_is_any_claimed_across(ptr noundef %0, i64 noundef %1, i64 noundef %2, i64 noundef %3) #2 {
  %5 = alloca ptr, align 8
  %6 = alloca i64, align 8
  %7 = alloca i64, align 8
  %8 = alloca i64, align 8
  %9 = alloca i8, align 1
  store ptr %0, ptr %5, align 8, !tbaa !3
  store i64 %1, ptr %6, align 8, !tbaa !7
  store i64 %2, ptr %7, align 8, !tbaa !7
  store i64 %3, ptr %8, align 8, !tbaa !7
  call void @llvm.lifetime.start.p0(i64 1, ptr %9) #5
  %10 = load ptr, ptr %5, align 8, !tbaa !3
  %11 = load i64, ptr %6, align 8, !tbaa !7
  %12 = load i64, ptr %7, align 8, !tbaa !7
  %13 = load i64, ptr %8, align 8, !tbaa !7
  %14 = call zeroext i1 @mi_bitmap_is_claimedx_across(ptr noundef %10, i64 noundef %11, i64 noundef %12, i64 noundef %13, ptr noundef %9) #6
  %15 = load i8, ptr %9, align 1, !tbaa !11, !range !13, !noundef !14
  %16 = trunc i8 %15 to i1
  call void @llvm.lifetime.end.p0(i64 1, ptr %9) #5
  ret i1 %16
}