; Function Attrs: nofree norecurse nounwind memory(argmem: readwrite) uwtable
define hidden zeroext i1 @_mi_bitmap_is_any_claimed_across(ptr noundef readonly captures(none) %0, i64 noundef %1, i64 noundef %2, i64 noundef %3) local_unnamed_addr #1 {
  %5 = lshr i64 %3, 6
  %6 = and i64 %3, 63
  %7 = add i64 %6, %2
  %8 = icmp ult i64 %7, 65
  br i1 %8, label %9, label %mi_bitmap_mask_.exit24.i.i, !prof !21

9:                                                ; preds = %4
  %10 = icmp ugt i64 %2, 63
  br i1 %10, label %._crit_edge.thread.i, label %11

11:                                               ; preds = %9
  %12 = icmp eq i64 %2, 0
  br i1 %12, label %._crit_edge.thread.i, label %13

13:                                               ; preds = %11
  %notmask.i.i.i = shl nsw i64 -1, %2
  %14 = xor i64 %notmask.i.i.i, -1
  %15 = shl i64 %14, %6
  br label %._crit_edge.thread.i

mi_bitmap_mask_.exit24.i.i:                       ; preds = %4
  %16 = sub nuw nsw i64 64, %6
  %17 = icmp eq i64 %6, 0
  %notmask.i22.i.i = shl nsw i64 -1, %16
  %18 = xor i64 %notmask.i22.i.i, -1
  %19 = shl i64 %18, %6
  %.0.i23.i.i = select i1 %17, i64 -1, i64 %19
  %20 = sub i64 %2, %16
  %21 = and i64 %20, 63
  %notmask.i25.i.i = shl nsw i64 -1, %21
  %22 = xor i64 %notmask.i25.i.i, -1
  %23 = getelementptr inbounds nuw i64, ptr %0, i64 %5
  %24 = load atomic i64, ptr %23 monotonic, align 8
  %25 = and i64 %24, %.0.i23.i.i
  %.not29.i = icmp ne i64 %25, 0
  %.02748.i = getelementptr inbounds nuw i8, ptr %23, i64 8
  %.not3049.i = icmp ult i64 %20, 64
  br i1 %.not3049.i, label %._crit_edge.i, label %.lr.ph.i.preheader

.lr.ph.i.preheader:                               ; preds = %mi_bitmap_mask_.exit24.i.i
  %26 = lshr i64 %20, 6
  br label %.lr.ph.i

._crit_edge.thread.i:                             ; preds = %13, %11, %9
  %.046.ph.i = phi i64 [ -1, %9 ], [ 0, %11 ], [ %15, %13 ]
  %27 = getelementptr inbounds nuw i64, ptr %0, i64 %5
  %28 = load atomic i64, ptr %27 monotonic, align 8
  %29 = and i64 %28, %.046.ph.i
  %.not2962.i = icmp ne i64 %29, 0
  br label %mi_bitmap_is_claimedx_across.exit

.lr.ph.i:                                         ; preds = %.lr.ph.i.preheader, %.lr.ph.i
  %.02753.i = phi ptr [ %.027.i, %.lr.ph.i ], [ %.02748.i, %.lr.ph.i.preheader ]
  %.052.i = phi i64 [ %30, %.lr.ph.i ], [ %26, %.lr.ph.i.preheader ]
  %.12450.i = phi i1 [ %.225.i, %.lr.ph.i ], [ %.not29.i, %.lr.ph.i.preheader ]
  %30 = add nsw i64 %.052.i, -1
  %31 = load atomic i64, ptr %.02753.i monotonic, align 8
  %.not36.i = icmp ne i64 %31, 0
  %.225.i = select i1 %.not36.i, i1 true, i1 %.12450.i
  %.027.i = getelementptr inbounds nuw i8, ptr %.02753.i, i64 8
  %.not30.i = icmp eq i64 %30, 0
  br i1 %.not30.i, label %._crit_edge.i, label %.lr.ph.i, !llvm.loop !24

._crit_edge.i:                                    ; preds = %.lr.ph.i, %mi_bitmap_mask_.exit24.i.i
  %.124.lcssa.i = phi i1 [ %.not29.i, %mi_bitmap_mask_.exit24.i.i ], [ %.225.i, %.lr.ph.i ]
  %.027.lcssa.i = phi ptr [ %.02748.i, %mi_bitmap_mask_.exit24.i.i ], [ %.027.i, %.lr.ph.i ]
  %.not31.i = icmp eq i64 %21, 0
  br i1 %.not31.i, label %mi_bitmap_is_claimedx_across.exit, label %32

32:                                               ; preds = %._crit_edge.i
  %33 = load atomic i64, ptr %.027.lcssa.i monotonic, align 8
  %34 = and i64 %33, %22
  %.not33.i = icmp ne i64 %34, 0
  %spec.select39.i = select i1 %.not33.i, i1 true, i1 %.124.lcssa.i
  br label %mi_bitmap_is_claimedx_across.exit

mi_bitmap_is_claimedx_across.exit:                ; preds = %._crit_edge.thread.i, %._crit_edge.i, %32
  %.326.i = phi i1 [ %.124.lcssa.i, %._crit_edge.i ], [ %spec.select39.i, %32 ], [ %.not2962.i, %._crit_edge.thread.i ]
  ret i1 %.326.i
}